
Allocating common symbols
Common symbol       size              file

mbox                0x20              out/mailbox.o
timer_queue         0x8               out/mailbox.o
CPIO_DEFAULT_PLACE  0x8               out/shell.o
task_queue          0x8               out/mailbox.o
queue_head          0x8               out/mailbox.o
dtb_place           0x8               out/devicetree.o

Discarded input sections

 .comment       0x0000000000000000       0x2c out/mailbox.o
 .note.GNU-stack
                0x0000000000000000        0x0 out/mailbox.o
 .eh_frame      0x0000000000000000       0x98 out/mailbox.o
 .comment       0x0000000000000000       0x2c out/core_timer.o
 .note.GNU-stack
                0x0000000000000000        0x0 out/core_timer.o
 .eh_frame      0x0000000000000000       0x88 out/core_timer.o
 .comment       0x0000000000000000       0x2c out/uart.o
 .note.GNU-stack
                0x0000000000000000        0x0 out/uart.o
 .eh_frame      0x0000000000000000      0x1c8 out/uart.o
 .comment       0x0000000000000000       0x2c out/irq.o
 .note.GNU-stack
                0x0000000000000000        0x0 out/irq.o
 .eh_frame      0x0000000000000000       0x98 out/irq.o
 .comment       0x0000000000000000       0x2c out/shell.o
 .note.GNU-stack
                0x0000000000000000        0x0 out/shell.o
 .eh_frame      0x0000000000000000       0x90 out/shell.o
 .comment       0x0000000000000000       0x2c out/my_string.o
 .note.GNU-stack
                0x0000000000000000        0x0 out/my_string.o
 .eh_frame      0x0000000000000000      0x130 out/my_string.o
 .comment       0x0000000000000000       0x2c out/exeception.o
 .note.GNU-stack
                0x0000000000000000        0x0 out/exeception.o
 .eh_frame      0x0000000000000000       0x60 out/exeception.o
 .comment       0x0000000000000000       0x2c out/math_.o
 .note.GNU-stack
                0x0000000000000000        0x0 out/math_.o
 .eh_frame      0x0000000000000000       0x38 out/math_.o
 .comment       0x0000000000000000       0x2c out/devicetree.o
 .note.GNU-stack
                0x0000000000000000        0x0 out/devicetree.o
 .eh_frame      0x0000000000000000       0x70 out/devicetree.o
 .comment       0x0000000000000000       0x2c out/cpio.o
 .note.GNU-stack
                0x0000000000000000        0x0 out/cpio.o
 .eh_frame      0x0000000000000000       0xd0 out/cpio.o
 .comment       0x0000000000000000       0x2c out/main.o
 .note.GNU-stack
                0x0000000000000000        0x0 out/main.o
 .eh_frame      0x0000000000000000       0x38 out/main.o
 .comment       0x0000000000000000       0x2c out/malloc.o
 .note.GNU-stack
                0x0000000000000000        0x0 out/malloc.o
 .eh_frame      0x0000000000000000       0x30 out/malloc.o
 .comment       0x0000000000000000       0x2c out/reboot.o
 .note.GNU-stack
                0x0000000000000000        0x0 out/reboot.o
 .eh_frame      0x0000000000000000       0x70 out/reboot.o

Memory Configuration

Name             Origin             Length             Attributes
*default*        0x0000000000000000 0xffffffffffffffff

Linker script and memory map

LOAD start.o
LOAD exeception.o
LOAD out/mailbox.o
LOAD out/core_timer.o
LOAD out/uart.o
LOAD out/irq.o
LOAD out/shell.o
LOAD out/my_string.o
LOAD out/exeception.o
LOAD out/math_.o
LOAD out/devicetree.o
LOAD out/cpio.o
LOAD out/main.o
LOAD out/malloc.o
LOAD out/reboot.o
                0x0000000000080000                . = 0x80000

.text           0x0000000000080000     0x48e0
 *(.text.boot)
 .text.boot     0x0000000000080000       0xa0 start.o
                0x0000000000080000                _start
 *(.text)
 .text          0x00000000000800a0        0x0 start.o
 *fill*         0x00000000000800a0      0x760 
 .text          0x0000000000080800     0x1330 exeception.o
                0x0000000000080800                exception_vector_table
                0x0000000000081b00                core_timer_enable
                0x0000000000081b18                core_timer_disable
 .text          0x0000000000081b30      0x2c8 out/mailbox.o
                0x0000000000081b30                sysinfo
                0x0000000000081bf8                get_info
                0x0000000000081c98                get_info_mem
                0x0000000000081d44                mailbox_call
 .text          0x0000000000081df8       0xc0 out/core_timer.o
                0x0000000000081df8                timer_on
                0x0000000000081e18                set_expired_time
                0x0000000000081e44                current_time
                0x0000000000081e6c                print_time_mes
 .text          0x0000000000081eb8      0x720 out/uart.o
                0x0000000000081eb8                uart_init
                0x0000000000081fd0                uart_send
                0x0000000000082010                uart_getc
                0x0000000000082060                uart_puts
                0x00000000000820bc                uart_printf
                0x0000000000082178                uart_flush
                0x00000000000821ac                async_handler
                0x000000000008225c                w_handler
                0x000000000008235c                r_handler
                0x00000000000823d0                async_send
                0x000000000008244c                async_getc
                0x00000000000824e8                enable_uart_r_interrupt
                0x000000000008250c                disable_uart_r_interrupt
                0x0000000000082530                enable_uart_w_interrupt
                0x0000000000082554                disable_uart_w_interrupt
                0x0000000000082578                printf_r
 .text          0x00000000000825d8      0x5b4 out/irq.o
                0x00000000000825d8                irq_handle
                0x000000000008262c                add_irq
                0x0000000000082848                pop_irq
                0x0000000000082908                add_priority_queue
 .text          0x0000000000082b8c      0x7d4 out/shell.o
                0x0000000000082b8c                shell
                0x0000000000082bac                shell_decode
                0x0000000000082e90                parse_CSI
                0x0000000000082f10                do_
 .text          0x0000000000083360      0xac4 out/my_string.o
                0x0000000000083360                vsprintf
                0x000000000008378c                itoa
                0x00000000000838d8                ftoa
                0x0000000000083a58                strcmp
                0x0000000000083ad0                itox
                0x0000000000083bd8                strlen
                0x0000000000083c1c                strcpy
                0x0000000000083c78                strncpy
                0x0000000000083cdc                strncmp
                0x0000000000083d90                align_up
                0x0000000000083dc0                memcpy
 .text          0x0000000000083e24       0x98 out/exeception.o
                0x0000000000083e24                exeception_handle
                0x0000000000083ea4                enable_interrupt
                0x0000000000083eb0                disable_interrupt
 .text          0x0000000000083ebc       0x3c out/math_.o
                0x0000000000083ebc                pow
 .text          0x0000000000083ef8      0x2f8 out/devicetree.o
                0x0000000000083ef8                uint32_endian_big2lttle
                0x0000000000083f58                fdt_traverse
                0x0000000000084188                dtb_callback_initramfs
 .text          0x00000000000841f0      0x500 out/cpio.o
                0x00000000000841f0                parse_hex
                0x000000000008434c                cpio_parse_header
                0x0000000000084478                ls
                0x0000000000084500                cat
                0x00000000000845d0                exec
                0x0000000000084660                exec_file
 .text          0x00000000000846f0       0xf4 out/main.o
                0x00000000000846f0                main
 .text          0x00000000000847e4       0x54 out/malloc.o
                0x00000000000847e4                simple_malloc
 .text          0x0000000000084838       0xa8 out/reboot.o
                0x0000000000084838                set
                0x0000000000084864                reset
                0x00000000000848ac                cancel_reset

.iplt           0x00000000000848e0        0x0
 .iplt          0x00000000000848e0        0x0 start.o

.rodata         0x00000000000848e0      0x515
 *(.rodata)
 .rodata        0x00000000000848e0       0x71 out/mailbox.o
 *fill*         0x0000000000084951        0x7 
 .rodata        0x0000000000084958        0x9 out/core_timer.o
 *fill*         0x0000000000084961        0x7 
 .rodata        0x0000000000084968       0x1a out/uart.o
 *fill*         0x0000000000084982        0x6 
 .rodata        0x0000000000084988       0x34 out/irq.o
 *fill*         0x00000000000849bc        0x4 
 .rodata        0x00000000000849c0      0x2ce out/shell.o
 *fill*         0x0000000000084c8e        0x2 
 .rodata        0x0000000000084c90       0x50 out/exeception.o
 .rodata        0x0000000000084ce0       0x4b out/devicetree.o
 *fill*         0x0000000000084d2b        0x5 
 .rodata        0x0000000000084d30       0x48 out/cpio.o
 .rodata        0x0000000000084d78       0x7d out/main.o
                [!provide]                        PROVIDE (_data = .)

.rela.dyn       0x0000000000084df8        0x0
 .rela.iplt     0x0000000000084df8        0x0 start.o
 .rela.text.boot
                0x0000000000084df8        0x0 start.o
 .rela.got      0x0000000000084df8        0x0 start.o
 .rela.data.rel
                0x0000000000084df8        0x0 start.o

.data           0x0000000000084df8      0x408
 *(.data)
 .data          0x0000000000084df8        0x0 start.o
 .data          0x0000000000084df8        0x0 exeception.o
 .data          0x0000000000084df8        0x0 out/mailbox.o
 .data          0x0000000000084df8        0x0 out/core_timer.o
 .data          0x0000000000084df8      0x404 out/uart.o
                0x0000000000084df8                tx_buf
                0x00000000000851f8                tx_write_idx
 .data          0x00000000000851fc        0x4 out/irq.o
                0x00000000000851fc                cur_nv
 .data          0x0000000000085200        0x0 out/shell.o
 .data          0x0000000000085200        0x0 out/my_string.o
 .data          0x0000000000085200        0x0 out/exeception.o
 .data          0x0000000000085200        0x0 out/math_.o
 .data          0x0000000000085200        0x0 out/devicetree.o
 .data          0x0000000000085200        0x0 out/cpio.o
 .data          0x0000000000085200        0x0 out/main.o
 .data          0x0000000000085200        0x0 out/malloc.o
 .data          0x0000000000085200        0x0 out/reboot.o

.igot.plt       0x0000000000085200        0x0
 .igot.plt      0x0000000000085200        0x0 start.o

.got            0x0000000000085200       0x50
 .got           0x0000000000085200       0x50 start.o
                0x0000000000085200                _GLOBAL_OFFSET_TABLE_

.got.plt        0x0000000000085250       0x18
 .got.plt       0x0000000000085250       0x18 start.o

.data.rel       0x0000000000085268        0x8
 .data.rel      0x0000000000085268        0x8 out/malloc.o
                0x0000000000085268                top

.bss            0x0000000000085270      0x468
                0x0000000000085270                . = ALIGN (0x10)
                0x0000000000085270                __bss_start = .
 *(.bss .bss.*)
 .bss           0x0000000000085270        0x0 start.o
 .bss           0x0000000000085270        0x0 exeception.o
 .bss           0x0000000000085270        0x0 out/mailbox.o
 .bss           0x0000000000085270        0x0 out/core_timer.o
 .bss           0x0000000000085270      0x414 out/uart.o
                0x0000000000085270                tx_read_idx
                0x0000000000085278                rx_buf
                0x0000000000085678                rx_write_idx
                0x000000000008567c                rx_read_idx
                0x0000000000085680                a
 .bss           0x0000000000085684        0x4 out/irq.o
                0x0000000000085684                b
 .bss           0x0000000000085688        0x0 out/shell.o
 .bss           0x0000000000085688        0x0 out/my_string.o
 .bss           0x0000000000085688        0x0 out/exeception.o
 .bss           0x0000000000085688        0x0 out/math_.o
 .bss           0x0000000000085688        0x0 out/devicetree.o
 .bss           0x0000000000085688        0x0 out/cpio.o
 .bss           0x0000000000085688        0x0 out/main.o
 .bss           0x0000000000085688        0x0 out/malloc.o
 .bss           0x0000000000085688        0x0 out/reboot.o
 *(COMMON)
 *fill*         0x0000000000085688        0x8 
 COMMON         0x0000000000085690       0x38 out/mailbox.o
                0x0000000000085690                mbox
                0x00000000000856b0                timer_queue
                0x00000000000856b8                task_queue
                0x00000000000856c0                queue_head
 COMMON         0x00000000000856c8        0x8 out/shell.o
                0x00000000000856c8                CPIO_DEFAULT_PLACE
 COMMON         0x00000000000856d0        0x8 out/devicetree.o
                0x00000000000856d0                dtb_place
                0x00000000000856d8                __bss_end = .
                0x00000000000856d8                _end = .

/DISCARD/
 *(.comment)
 *(.gnu*)
 *(.note*)
 *(.eh_frame*)
                0x000000000000008d                __bss_size = ((__bss_end - __bss_start) >> 0x3)
                0x0000000000100000                _heap_start = 0x100000
OUTPUT(kernel8.elf elf64-littleaarch64)
LOAD linker stubs

.debug_line     0x0000000000000000     0x14c6
 .debug_line    0x0000000000000000       0x5e start.o
 .debug_line    0x000000000000005e       0xd9 exeception.o
 .debug_line    0x0000000000000137      0x111 out/mailbox.o
 .debug_line    0x0000000000000248       0x96 out/core_timer.o
 .debug_line    0x00000000000002de      0x2cf out/uart.o
 .debug_line    0x00000000000005ad      0x239 out/irq.o
 .debug_line    0x00000000000007e6      0x342 out/shell.o
 .debug_line    0x0000000000000b28      0x3f2 out/my_string.o
 .debug_line    0x0000000000000f1a       0x86 out/exeception.o
 .debug_line    0x0000000000000fa0       0x48 out/math_.o
 .debug_line    0x0000000000000fe8      0x148 out/devicetree.o
 .debug_line    0x0000000000001130      0x21f out/cpio.o
 .debug_line    0x000000000000134f       0xa6 out/main.o
 .debug_line    0x00000000000013f5       0x6f out/malloc.o
 .debug_line    0x0000000000001464       0x62 out/reboot.o

.debug_info     0x0000000000000000     0x2b51
 .debug_info    0x0000000000000000       0x2e start.o
 .debug_info    0x000000000000002e       0x2e exeception.o
 .debug_info    0x000000000000005c      0x2b4 out/mailbox.o
 .debug_info    0x0000000000000310      0x2a4 out/core_timer.o
 .debug_info    0x00000000000005b4      0x56a out/uart.o
 .debug_info    0x0000000000000b1e      0x3bc out/irq.o
 .debug_info    0x0000000000000eda      0x3d4 out/shell.o
 .debug_info    0x00000000000012ae      0x67c out/my_string.o
 .debug_info    0x000000000000192a      0x247 out/exeception.o
 .debug_info    0x0000000000001b71       0x72 out/math_.o
 .debug_info    0x0000000000001be3      0x456 out/devicetree.o
 .debug_info    0x0000000000002039      0x5c8 out/cpio.o
 .debug_info    0x0000000000002601      0x26f out/main.o
 .debug_info    0x0000000000002870      0x1ff out/malloc.o
 .debug_info    0x0000000000002a6f       0xe2 out/reboot.o

.debug_abbrev   0x0000000000000000     0x110d
 .debug_abbrev  0x0000000000000000       0x14 start.o
 .debug_abbrev  0x0000000000000014       0x14 exeception.o
 .debug_abbrev  0x0000000000000028      0x16d out/mailbox.o
 .debug_abbrev  0x0000000000000195      0x159 out/core_timer.o
 .debug_abbrev  0x00000000000002ee      0x22c out/uart.o
 .debug_abbrev  0x000000000000051a      0x162 out/irq.o
 .debug_abbrev  0x000000000000067c      0x1d9 out/shell.o
 .debug_abbrev  0x0000000000000855      0x11e out/my_string.o
 .debug_abbrev  0x0000000000000973      0x10e out/exeception.o
 .debug_abbrev  0x0000000000000a81       0x4e out/math_.o
 .debug_abbrev  0x0000000000000acf      0x166 out/devicetree.o
 .debug_abbrev  0x0000000000000c35      0x1d1 out/cpio.o
 .debug_abbrev  0x0000000000000e06      0x13a out/main.o
 .debug_abbrev  0x0000000000000f40      0x121 out/malloc.o
 .debug_abbrev  0x0000000000001061       0xac out/reboot.o

.debug_aranges  0x0000000000000000      0x2d0
 .debug_aranges
                0x0000000000000000       0x30 start.o
 .debug_aranges
                0x0000000000000030       0x30 exeception.o
 .debug_aranges
                0x0000000000000060       0x30 out/mailbox.o
 .debug_aranges
                0x0000000000000090       0x30 out/core_timer.o
 .debug_aranges
                0x00000000000000c0       0x30 out/uart.o
 .debug_aranges
                0x00000000000000f0       0x30 out/irq.o
 .debug_aranges
                0x0000000000000120       0x30 out/shell.o
 .debug_aranges
                0x0000000000000150       0x30 out/my_string.o
 .debug_aranges
                0x0000000000000180       0x30 out/exeception.o
 .debug_aranges
                0x00000000000001b0       0x30 out/math_.o
 .debug_aranges
                0x00000000000001e0       0x30 out/devicetree.o
 .debug_aranges
                0x0000000000000210       0x30 out/cpio.o
 .debug_aranges
                0x0000000000000240       0x30 out/main.o
 .debug_aranges
                0x0000000000000270       0x30 out/malloc.o
 .debug_aranges
                0x00000000000002a0       0x30 out/reboot.o

.debug_str      0x0000000000000000      0x820
 .debug_str     0x0000000000000000       0x29 start.o
 .debug_str     0x0000000000000029        0xd exeception.o
                                         0x2e (size before relaxing)
 .debug_str     0x0000000000000036      0x145 out/mailbox.o
                                        0x18c (size before relaxing)
 .debug_str     0x000000000000017b       0x5d out/core_timer.o
                                        0x1a6 (size before relaxing)
 .debug_str     0x00000000000001d8      0x170 out/uart.o
                                        0x2b4 (size before relaxing)
 .debug_str     0x0000000000000348       0x6a out/irq.o
                                        0x1ae (size before relaxing)
 .debug_str     0x00000000000003b2       0x71 out/shell.o
                                        0x1c0 (size before relaxing)
 .debug_str     0x0000000000000423       0xb3 out/my_string.o
                                        0x1a5 (size before relaxing)
 .debug_str     0x00000000000004d6       0x66 out/exeception.o
                                        0x1c1 (size before relaxing)
 .debug_str     0x000000000000053c       0x13 out/math_.o
                                         0x99 (size before relaxing)
 .debug_str     0x000000000000054f      0x151 out/devicetree.o
                                        0x2c8 (size before relaxing)
 .debug_str     0x00000000000006a0      0x10b out/cpio.o
                                        0x281 (size before relaxing)
 .debug_str     0x00000000000007ab       0x27 out/main.o
                                        0x18d (size before relaxing)
 .debug_str     0x00000000000007d2       0x1b out/malloc.o
                                        0x157 (size before relaxing)
 .debug_str     0x00000000000007ed       0x33 out/reboot.o
                                         0xd2 (size before relaxing)

.debug_ranges   0x0000000000000000       0xf0
 .debug_ranges  0x0000000000000000       0x60 out/shell.o
 .debug_ranges  0x0000000000000060       0x90 out/cpio.o
